
build/isodir/boot/ondřux.bin:     file format elf32-i386


Disassembly of section .text:

00100000 <init_memory-0x10>:
  100000:	02 b0 ad 1b 03 00    	add    0x31bad(%eax),%dh
  100006:	00 00                	add    %al,(%eax)
  100008:	fb                   	sti    
  100009:	4f                   	dec    %edi
  10000a:	52                   	push   %edx
  10000b:	e4 66                	in     $0x66,%al
  10000d:	90                   	nop
  10000e:	66 90                	xchg   %ax,%ax

00100010 <init_memory>:
  100010:	53                   	push   %ebx
  100011:	83 ec 08             	sub    $0x8,%esp
  100014:	8b 5c 24 10          	mov    0x10(%esp),%ebx
  100018:	8b 03                	mov    (%ebx),%eax
  10001a:	a8 01                	test   $0x1,%al
  10001c:	0f 84 ce 00 00 00    	je     1000f0 <init_memory+0xe0>
  100022:	a8 20                	test   $0x20,%al
  100024:	0f 84 a6 00 00 00    	je     1000d0 <init_memory+0xc0>
  10002a:	83 ec 0c             	sub    $0xc,%esp
  10002d:	68 48 07 10 00       	push   $0x100748
  100032:	e8 39 04 00 00       	call   100470 <print_str>
  100037:	58                   	pop    %eax
  100038:	ff 73 04             	pushl  0x4(%ebx)
  10003b:	e8 d0 05 00 00       	call   100610 <print_num>
  100040:	c7 04 24 57 07 10 00 	movl   $0x100757,(%esp)
  100047:	e8 64 04 00 00       	call   1004b0 <print_str_ln>
  10004c:	c7 04 24 5b 07 10 00 	movl   $0x10075b,(%esp)
  100053:	e8 18 04 00 00       	call   100470 <print_str>
  100058:	5a                   	pop    %edx
  100059:	ff 73 08             	pushl  0x8(%ebx)
  10005c:	e8 af 05 00 00       	call   100610 <print_num>
  100061:	c7 04 24 57 07 10 00 	movl   $0x100757,(%esp)
  100068:	e8 43 04 00 00       	call   1004b0 <print_str_ln>
  10006d:	c7 04 24 6a 07 10 00 	movl   $0x10076a,(%esp)
  100074:	e8 f7 03 00 00       	call   100470 <print_str>
  100079:	59                   	pop    %ecx
  10007a:	ff 73 2c             	pushl  0x2c(%ebx)
  10007d:	e8 9e 05 00 00       	call   100620 <print_num_ln>
  100082:	8b 43 30             	mov    0x30(%ebx),%eax
  100085:	8b 4b 2c             	mov    0x2c(%ebx),%ecx
  100088:	83 c4 10             	add    $0x10,%esp
  10008b:	01 c1                	add    %eax,%ecx
  10008d:	a3 00 14 10 00       	mov    %eax,0x101400
  100092:	39 c8                	cmp    %ecx,%eax
  100094:	89 cb                	mov    %ecx,%ebx
  100096:	73 69                	jae    100101 <init_memory+0xf1>
  100098:	31 d2                	xor    %edx,%edx
  10009a:	8d b6 00 00 00 00    	lea    0x0(%esi),%esi
  1000a0:	8d 4a 01             	lea    0x1(%edx),%ecx
  1000a3:	89 04 95 00 10 10 00 	mov    %eax,0x101000(,%edx,4)
  1000aa:	8b 10                	mov    (%eax),%edx
  1000ac:	8d 44 10 04          	lea    0x4(%eax,%edx,1),%eax
  1000b0:	0f b6 d1             	movzbl %cl,%edx
  1000b3:	39 d8                	cmp    %ebx,%eax
  1000b5:	72 e9                	jb     1000a0 <init_memory+0x90>
  1000b7:	88 0d 04 14 10 00    	mov    %cl,0x101404
  1000bd:	83 c4 08             	add    $0x8,%esp
  1000c0:	5b                   	pop    %ebx
  1000c1:	c3                   	ret    
  1000c2:	8d b4 26 00 00 00 00 	lea    0x0(%esi,%eiz,1),%esi
  1000c9:	8d bc 27 00 00 00 00 	lea    0x0(%edi,%eiz,1),%edi
  1000d0:	c7 44 24 10 ec 06 10 	movl   $0x1006ec,0x10(%esp)
  1000d7:	00 
  1000d8:	83 c4 08             	add    $0x8,%esp
  1000db:	5b                   	pop    %ebx
  1000dc:	e9 cf 03 00 00       	jmp    1004b0 <print_str_ln>
  1000e1:	eb 0d                	jmp    1000f0 <init_memory+0xe0>
  1000e3:	90                   	nop
  1000e4:	90                   	nop
  1000e5:	90                   	nop
  1000e6:	90                   	nop
  1000e7:	90                   	nop
  1000e8:	90                   	nop
  1000e9:	90                   	nop
  1000ea:	90                   	nop
  1000eb:	90                   	nop
  1000ec:	90                   	nop
  1000ed:	90                   	nop
  1000ee:	90                   	nop
  1000ef:	90                   	nop
  1000f0:	c7 44 24 10 c4 06 10 	movl   $0x1006c4,0x10(%esp)
  1000f7:	00 
  1000f8:	83 c4 08             	add    $0x8,%esp
  1000fb:	5b                   	pop    %ebx
  1000fc:	e9 af 03 00 00       	jmp    1004b0 <print_str_ln>
  100101:	31 c9                	xor    %ecx,%ecx
  100103:	eb b2                	jmp    1000b7 <init_memory+0xa7>
  100105:	8d 74 26 00          	lea    0x0(%esi,%eiz,1),%esi
  100109:	8d bc 27 00 00 00 00 	lea    0x0(%edi,%eiz,1),%edi

00100110 <print_mmap_info>:
  100110:	80 3d 04 14 10 00 00 	cmpb   $0x0,0x101404
  100117:	0f 84 db 00 00 00    	je     1001f8 <print_mmap_info+0xe8>
  10011d:	55                   	push   %ebp
  10011e:	57                   	push   %edi
  10011f:	bd 7d 07 10 00       	mov    $0x10077d,%ebp
  100124:	56                   	push   %esi
  100125:	53                   	push   %ebx
  100126:	31 f6                	xor    %esi,%esi
  100128:	83 ec 0c             	sub    $0xc,%esp
  10012b:	90                   	nop
  10012c:	8d 74 26 00          	lea    0x0(%esi,%eiz,1),%esi
  100130:	89 f0                	mov    %esi,%eax
  100132:	83 ec 0c             	sub    $0xc,%esp
  100135:	0f b6 f8             	movzbl %al,%edi
  100138:	68 87 07 10 00       	push   $0x100787
  10013d:	8b 1c bd 00 10 10 00 	mov    0x101000(,%edi,4),%ebx
  100144:	e8 27 03 00 00       	call   100470 <print_str>
  100149:	89 3c 24             	mov    %edi,(%esp)
  10014c:	e8 bf 04 00 00       	call   100610 <print_num>
  100151:	c7 04 24 97 07 10 00 	movl   $0x100797,(%esp)
  100158:	e8 13 03 00 00       	call   100470 <print_str>
  10015d:	83 7b 14 01          	cmpl   $0x1,0x14(%ebx)
  100161:	b8 81 07 10 00       	mov    $0x100781,%eax
  100166:	0f 44 c5             	cmove  %ebp,%eax
  100169:	83 c6 01             	add    $0x1,%esi
  10016c:	89 04 24             	mov    %eax,(%esp)
  10016f:	e8 3c 03 00 00       	call   1004b0 <print_str_ln>
  100174:	c7 04 24 9f 07 10 00 	movl   $0x10079f,(%esp)
  10017b:	e8 f0 02 00 00       	call   100470 <print_str>
  100180:	58                   	pop    %eax
  100181:	ff 73 08             	pushl  0x8(%ebx)
  100184:	e8 e7 03 00 00       	call   100570 <hex_dump>
  100189:	c7 04 24 7b 07 10 00 	movl   $0x10077b,(%esp)
  100190:	e8 db 02 00 00       	call   100470 <print_str>
  100195:	5a                   	pop    %edx
  100196:	ff 73 04             	pushl  0x4(%ebx)
  100199:	e8 d2 03 00 00       	call   100570 <hex_dump>
  10019e:	c7 04 24 d7 07 10 00 	movl   $0x1007d7,(%esp)
  1001a5:	e8 06 03 00 00       	call   1004b0 <print_str_ln>
  1001aa:	c7 04 24 ae 07 10 00 	movl   $0x1007ae,(%esp)
  1001b1:	e8 ba 02 00 00       	call   100470 <print_str>
  1001b6:	59                   	pop    %ecx
  1001b7:	ff 73 10             	pushl  0x10(%ebx)
  1001ba:	e8 b1 03 00 00       	call   100570 <hex_dump>
  1001bf:	c7 04 24 7b 07 10 00 	movl   $0x10077b,(%esp)
  1001c6:	e8 a5 02 00 00       	call   100470 <print_str>
  1001cb:	5f                   	pop    %edi
  1001cc:	ff 73 0c             	pushl  0xc(%ebx)
  1001cf:	e8 9c 03 00 00       	call   100570 <hex_dump>
  1001d4:	c7 04 24 d7 07 10 00 	movl   $0x1007d7,(%esp)
  1001db:	e8 d0 02 00 00       	call   1004b0 <print_str_ln>
  1001e0:	83 c4 10             	add    $0x10,%esp
  1001e3:	89 f0                	mov    %esi,%eax
  1001e5:	38 05 04 14 10 00    	cmp    %al,0x101404
  1001eb:	0f 87 3f ff ff ff    	ja     100130 <print_mmap_info+0x20>
  1001f1:	83 c4 0c             	add    $0xc,%esp
  1001f4:	5b                   	pop    %ebx
  1001f5:	5e                   	pop    %esi
  1001f6:	5f                   	pop    %edi
  1001f7:	5d                   	pop    %ebp
  1001f8:	f3 c3                	repz ret 
  1001fa:	66 90                	xchg   %ax,%ax
  1001fc:	66 90                	xchg   %ax,%ax
  1001fe:	66 90                	xchg   %ax,%ax

00100200 <kernel_main>:
  100200:	56                   	push   %esi
  100201:	53                   	push   %ebx
  100202:	83 ec 04             	sub    $0x4,%esp
  100205:	8b 5c 24 14          	mov    0x14(%esp),%ebx
  100209:	8b 74 24 10          	mov    0x10(%esp),%esi
  10020d:	e8 de 00 00 00       	call   1002f0 <odio_init>
  100212:	81 fb 02 b0 ad 2b    	cmp    $0x2badb002,%ebx
  100218:	74 16                	je     100230 <kernel_main+0x30>
  10021a:	c7 44 24 10 14 07 10 	movl   $0x100714,0x10(%esp)
  100221:	00 
  100222:	83 c4 04             	add    $0x4,%esp
  100225:	5b                   	pop    %ebx
  100226:	5e                   	pop    %esi
  100227:	e9 84 02 00 00       	jmp    1004b0 <print_str_ln>
  10022c:	8d 74 26 00          	lea    0x0(%esi,%eiz,1),%esi
  100230:	83 ec 0c             	sub    $0xc,%esp
  100233:	56                   	push   %esi
  100234:	e8 d7 fd ff ff       	call   100010 <init_memory>
  100239:	e8 52 04 00 00       	call   100690 <odio_clear>
  10023e:	c7 04 24 bd 07 10 00 	movl   $0x1007bd,(%esp)
  100245:	e8 26 02 00 00       	call   100470 <print_str>
  10024a:	c7 04 24 00 14 10 00 	movl   $0x101400,(%esp)
  100251:	e8 1a 03 00 00       	call   100570 <hex_dump>
  100256:	c7 04 24 d7 07 10 00 	movl   $0x1007d7,(%esp)
  10025d:	e8 4e 02 00 00       	call   1004b0 <print_str_ln>
  100262:	c7 04 24 d7 07 10 00 	movl   $0x1007d7,(%esp)
  100269:	e8 42 02 00 00       	call   1004b0 <print_str_ln>
  10026e:	c7 04 24 cb 07 10 00 	movl   $0x1007cb,(%esp)
  100275:	e8 f6 01 00 00       	call   100470 <print_str>
  10027a:	58                   	pop    %eax
  10027b:	ff 35 b0 54 10 00    	pushl  0x1054b0
  100281:	e8 ea 02 00 00       	call   100570 <hex_dump>
  100286:	c7 04 24 d7 07 10 00 	movl   $0x1007d7,(%esp)
  10028d:	e8 1e 02 00 00       	call   1004b0 <print_str_ln>
  100292:	c7 04 24 d8 07 10 00 	movl   $0x1007d8,(%esp)
  100299:	e8 d2 01 00 00       	call   100470 <print_str>
  10029e:	5a                   	pop    %edx
  10029f:	ff 35 34 0b 10 00    	pushl  0x100b34
  1002a5:	e8 c6 02 00 00       	call   100570 <hex_dump>
  1002aa:	c7 44 24 20 d7 07 10 	movl   $0x1007d7,0x20(%esp)
  1002b1:	00 
  1002b2:	83 c4 14             	add    $0x14,%esp
  1002b5:	5b                   	pop    %ebx
  1002b6:	5e                   	pop    %esi
  1002b7:	e9 f4 01 00 00       	jmp    1004b0 <print_str_ln>

001002bc <_start>:
  1002bc:	bc b0 54 10 00       	mov    $0x1054b0,%esp
  1002c1:	50                   	push   %eax
  1002c2:	53                   	push   %ebx
  1002c3:	e8 38 ff ff ff       	call   100200 <kernel_main>
  1002c8:	fa                   	cli    
  1002c9:	f4                   	hlt    
  1002ca:	eb fd                	jmp    1002c9 <_start+0xd>
  1002cc:	66 90                	xchg   %ax,%ax
  1002ce:	66 90                	xchg   %ax,%ax

001002d0 <strlen>:
  1002d0:	8b 54 24 04          	mov    0x4(%esp),%edx
  1002d4:	31 c0                	xor    %eax,%eax
  1002d6:	80 3a 00             	cmpb   $0x0,(%edx)
  1002d9:	74 10                	je     1002eb <strlen+0x1b>
  1002db:	90                   	nop
  1002dc:	8d 74 26 00          	lea    0x0(%esi,%eiz,1),%esi
  1002e0:	83 c0 01             	add    $0x1,%eax
  1002e3:	80 3c 02 00          	cmpb   $0x0,(%edx,%eax,1)
  1002e7:	75 f7                	jne    1002e0 <strlen+0x10>
  1002e9:	f3 c3                	repz ret 
  1002eb:	f3 c3                	repz ret 
  1002ed:	8d 76 00             	lea    0x0(%esi),%esi

001002f0 <odio_init>:
  1002f0:	c7 05 a8 14 10 00 00 	movl   $0x0,0x1014a8
  1002f7:	00 00 00 
  1002fa:	c7 05 24 14 10 00 00 	movl   $0x0,0x101424
  100301:	00 00 00 
  100304:	b8 00 80 0b 00       	mov    $0xb8000,%eax
  100309:	c6 05 20 14 10 00 07 	movb   $0x7,0x101420
  100310:	c7 05 a4 14 10 00 00 	movl   $0xb8000,0x1014a4
  100317:	80 0b 00 
  10031a:	8d b6 00 00 00 00    	lea    0x0(%esi),%esi
  100320:	8d 90 a0 00 00 00    	lea    0xa0(%eax),%edx
  100326:	8d 76 00             	lea    0x0(%esi),%esi
  100329:	8d bc 27 00 00 00 00 	lea    0x0(%edi,%eiz,1),%edi
  100330:	b9 20 07 00 00       	mov    $0x720,%ecx
  100335:	83 c0 02             	add    $0x2,%eax
  100338:	66 89 48 fe          	mov    %cx,-0x2(%eax)
  10033c:	39 d0                	cmp    %edx,%eax
  10033e:	75 f0                	jne    100330 <odio_init+0x40>
  100340:	3d a0 8f 0b 00       	cmp    $0xb8fa0,%eax
  100345:	75 d9                	jne    100320 <odio_init+0x30>
  100347:	f3 c3                	repz ret 
  100349:	8d b4 26 00 00 00 00 	lea    0x0(%esi,%eiz,1),%esi

00100350 <terminal_setcolor>:
  100350:	8b 44 24 04          	mov    0x4(%esp),%eax
  100354:	a2 20 14 10 00       	mov    %al,0x101420
  100359:	c3                   	ret    
  10035a:	8d b6 00 00 00 00    	lea    0x0(%esi),%esi

00100360 <terminal_putentryat>:
  100360:	0f b6 54 24 08       	movzbl 0x8(%esp),%edx
  100365:	8b 44 24 10          	mov    0x10(%esp),%eax
  100369:	8d 04 80             	lea    (%eax,%eax,4),%eax
  10036c:	89 d1                	mov    %edx,%ecx
  10036e:	0f b6 54 24 04       	movzbl 0x4(%esp),%edx
  100373:	c1 e1 08             	shl    $0x8,%ecx
  100376:	c1 e0 04             	shl    $0x4,%eax
  100379:	03 44 24 0c          	add    0xc(%esp),%eax
  10037d:	09 ca                	or     %ecx,%edx
  10037f:	8b 0d a4 14 10 00    	mov    0x1014a4,%ecx
  100385:	66 89 14 41          	mov    %dx,(%ecx,%eax,2)
  100389:	c3                   	ret    
  10038a:	8d b6 00 00 00 00    	lea    0x0(%esi),%esi

00100390 <terminal_putchar>:
  100390:	56                   	push   %esi
  100391:	53                   	push   %ebx
  100392:	8b 44 24 0c          	mov    0xc(%esp),%eax
  100396:	3c 0a                	cmp    $0xa,%al
  100398:	74 76                	je     100410 <terminal_putchar+0x80>
  10039a:	8b 1d a8 14 10 00    	mov    0x1014a8,%ebx
  1003a0:	0f b6 35 20 14 10 00 	movzbl 0x101420,%esi
  1003a7:	0f b6 c0             	movzbl %al,%eax
  1003aa:	8b 0d 24 14 10 00    	mov    0x101424,%ecx
  1003b0:	8d 14 9b             	lea    (%ebx,%ebx,4),%edx
  1003b3:	c1 e6 08             	shl    $0x8,%esi
  1003b6:	09 f0                	or     %esi,%eax
  1003b8:	c1 e2 04             	shl    $0x4,%edx
  1003bb:	8b 35 a4 14 10 00    	mov    0x1014a4,%esi
  1003c1:	01 ca                	add    %ecx,%edx
  1003c3:	83 c1 01             	add    $0x1,%ecx
  1003c6:	83 f9 50             	cmp    $0x50,%ecx
  1003c9:	66 89 04 56          	mov    %ax,(%esi,%edx,2)
  1003cd:	74 11                	je     1003e0 <terminal_putchar+0x50>
  1003cf:	89 0d 24 14 10 00    	mov    %ecx,0x101424
  1003d5:	5b                   	pop    %ebx
  1003d6:	5e                   	pop    %esi
  1003d7:	c3                   	ret    
  1003d8:	90                   	nop
  1003d9:	8d b4 26 00 00 00 00 	lea    0x0(%esi,%eiz,1),%esi
  1003e0:	83 c3 01             	add    $0x1,%ebx
  1003e3:	c7 05 24 14 10 00 00 	movl   $0x0,0x101424
  1003ea:	00 00 00 
  1003ed:	83 fb 19             	cmp    $0x19,%ebx
  1003f0:	89 1d a8 14 10 00    	mov    %ebx,0x1014a8
  1003f6:	75 dd                	jne    1003d5 <terminal_putchar+0x45>
  1003f8:	5b                   	pop    %ebx
  1003f9:	c7 05 a8 14 10 00 00 	movl   $0x0,0x1014a8
  100400:	00 00 00 
  100403:	5e                   	pop    %esi
  100404:	c3                   	ret    
  100405:	8d 74 26 00          	lea    0x0(%esi,%eiz,1),%esi
  100409:	8d bc 27 00 00 00 00 	lea    0x0(%edi,%eiz,1),%edi
  100410:	a1 a8 14 10 00       	mov    0x1014a8,%eax
  100415:	c7 05 24 14 10 00 00 	movl   $0x0,0x101424
  10041c:	00 00 00 
  10041f:	83 c0 01             	add    $0x1,%eax
  100422:	83 f8 19             	cmp    $0x19,%eax
  100425:	a3 a8 14 10 00       	mov    %eax,0x1014a8
  10042a:	74 cc                	je     1003f8 <terminal_putchar+0x68>
  10042c:	5b                   	pop    %ebx
  10042d:	5e                   	pop    %esi
  10042e:	c3                   	ret    
  10042f:	90                   	nop

00100430 <terminal_write>:
  100430:	56                   	push   %esi
  100431:	53                   	push   %ebx
  100432:	8b 44 24 10          	mov    0x10(%esp),%eax
  100436:	8b 5c 24 0c          	mov    0xc(%esp),%ebx
  10043a:	85 c0                	test   %eax,%eax
  10043c:	8d 34 03             	lea    (%ebx,%eax,1),%esi
  10043f:	74 20                	je     100461 <terminal_write+0x31>
  100441:	eb 0d                	jmp    100450 <terminal_write+0x20>
  100443:	90                   	nop
  100444:	90                   	nop
  100445:	90                   	nop
  100446:	90                   	nop
  100447:	90                   	nop
  100448:	90                   	nop
  100449:	90                   	nop
  10044a:	90                   	nop
  10044b:	90                   	nop
  10044c:	90                   	nop
  10044d:	90                   	nop
  10044e:	90                   	nop
  10044f:	90                   	nop
  100450:	0f be 03             	movsbl (%ebx),%eax
  100453:	83 c3 01             	add    $0x1,%ebx
  100456:	50                   	push   %eax
  100457:	e8 34 ff ff ff       	call   100390 <terminal_putchar>
  10045c:	39 f3                	cmp    %esi,%ebx
  10045e:	58                   	pop    %eax
  10045f:	75 ef                	jne    100450 <terminal_write+0x20>
  100461:	5b                   	pop    %ebx
  100462:	5e                   	pop    %esi
  100463:	c3                   	ret    
  100464:	8d b6 00 00 00 00    	lea    0x0(%esi),%esi
  10046a:	8d bf 00 00 00 00    	lea    0x0(%edi),%edi

00100470 <print_str>:
  100470:	56                   	push   %esi
  100471:	53                   	push   %ebx
  100472:	8b 5c 24 0c          	mov    0xc(%esp),%ebx
  100476:	80 3b 00             	cmpb   $0x0,(%ebx)
  100479:	74 26                	je     1004a1 <print_str+0x31>
  10047b:	31 c0                	xor    %eax,%eax
  10047d:	8d 76 00             	lea    0x0(%esi),%esi
  100480:	83 c0 01             	add    $0x1,%eax
  100483:	80 3c 03 00          	cmpb   $0x0,(%ebx,%eax,1)
  100487:	75 f7                	jne    100480 <print_str+0x10>
  100489:	8d 34 03             	lea    (%ebx,%eax,1),%esi
  10048c:	8d 74 26 00          	lea    0x0(%esi,%eiz,1),%esi
  100490:	0f be 03             	movsbl (%ebx),%eax
  100493:	83 c3 01             	add    $0x1,%ebx
  100496:	50                   	push   %eax
  100497:	e8 f4 fe ff ff       	call   100390 <terminal_putchar>
  10049c:	39 de                	cmp    %ebx,%esi
  10049e:	58                   	pop    %eax
  10049f:	75 ef                	jne    100490 <print_str+0x20>
  1004a1:	5b                   	pop    %ebx
  1004a2:	5e                   	pop    %esi
  1004a3:	c3                   	ret    
  1004a4:	8d b6 00 00 00 00    	lea    0x0(%esi),%esi
  1004aa:	8d bf 00 00 00 00    	lea    0x0(%edi),%edi

001004b0 <print_str_ln>:
  1004b0:	56                   	push   %esi
  1004b1:	53                   	push   %ebx
  1004b2:	31 c0                	xor    %eax,%eax
  1004b4:	8b 5c 24 0c          	mov    0xc(%esp),%ebx
  1004b8:	80 3b 00             	cmpb   $0x0,(%ebx)
  1004bb:	74 24                	je     1004e1 <print_str_ln+0x31>
  1004bd:	8d 76 00             	lea    0x0(%esi),%esi
  1004c0:	83 c0 01             	add    $0x1,%eax
  1004c3:	80 3c 03 00          	cmpb   $0x0,(%ebx,%eax,1)
  1004c7:	75 f7                	jne    1004c0 <print_str_ln+0x10>
  1004c9:	8d 34 03             	lea    (%ebx,%eax,1),%esi
  1004cc:	8d 74 26 00          	lea    0x0(%esi,%eiz,1),%esi
  1004d0:	0f be 03             	movsbl (%ebx),%eax
  1004d3:	83 c3 01             	add    $0x1,%ebx
  1004d6:	50                   	push   %eax
  1004d7:	e8 b4 fe ff ff       	call   100390 <terminal_putchar>
  1004dc:	39 de                	cmp    %ebx,%esi
  1004de:	58                   	pop    %eax
  1004df:	75 ef                	jne    1004d0 <print_str_ln+0x20>
  1004e1:	c7 44 24 0c 0a 00 00 	movl   $0xa,0xc(%esp)
  1004e8:	00 
  1004e9:	5b                   	pop    %ebx
  1004ea:	5e                   	pop    %esi
  1004eb:	e9 a0 fe ff ff       	jmp    100390 <terminal_putchar>

001004f0 <print_num_base>:
  1004f0:	57                   	push   %edi
  1004f1:	56                   	push   %esi
  1004f2:	53                   	push   %ebx
  1004f3:	8b 44 24 10          	mov    0x10(%esp),%eax
  1004f7:	bb 01 00 00 00       	mov    $0x1,%ebx
  1004fc:	8b 4c 24 14          	mov    0x14(%esp),%ecx
  100500:	85 c0                	test   %eax,%eax
  100502:	75 13                	jne    100517 <print_num_base+0x27>
  100504:	eb 53                	jmp    100559 <print_num_base+0x69>
  100506:	8d 76 00             	lea    0x0(%esi),%esi
  100509:	8d bc 27 00 00 00 00 	lea    0x0(%edi,%eiz,1),%edi
  100510:	83 fb 63             	cmp    $0x63,%ebx
  100513:	77 2b                	ja     100540 <print_num_base+0x50>
  100515:	89 d3                	mov    %edx,%ebx
  100517:	31 d2                	xor    %edx,%edx
  100519:	f7 f1                	div    %ecx
  10051b:	8d 7a 37             	lea    0x37(%edx),%edi
  10051e:	8d 72 30             	lea    0x30(%edx),%esi
  100521:	83 fa 09             	cmp    $0x9,%edx
  100524:	0f 46 fe             	cmovbe %esi,%edi
  100527:	85 c0                	test   %eax,%eax
  100529:	89 fa                	mov    %edi,%edx
  10052b:	88 93 3f 14 10 00    	mov    %dl,0x10143f(%ebx)
  100531:	8d 53 01             	lea    0x1(%ebx),%edx
  100534:	75 da                	jne    100510 <print_num_base+0x20>
  100536:	8d 76 00             	lea    0x0(%esi),%esi
  100539:	8d bc 27 00 00 00 00 	lea    0x0(%edi,%eiz,1),%edi
  100540:	83 eb 01             	sub    $0x1,%ebx
  100543:	0f be 83 40 14 10 00 	movsbl 0x101440(%ebx),%eax
  10054a:	50                   	push   %eax
  10054b:	e8 40 fe ff ff       	call   100390 <terminal_putchar>
  100550:	85 db                	test   %ebx,%ebx
  100552:	58                   	pop    %eax
  100553:	75 eb                	jne    100540 <print_num_base+0x50>
  100555:	5b                   	pop    %ebx
  100556:	5e                   	pop    %esi
  100557:	5f                   	pop    %edi
  100558:	c3                   	ret    
  100559:	c7 44 24 10 30 00 00 	movl   $0x30,0x10(%esp)
  100560:	00 
  100561:	5b                   	pop    %ebx
  100562:	5e                   	pop    %esi
  100563:	5f                   	pop    %edi
  100564:	e9 27 fe ff ff       	jmp    100390 <terminal_putchar>
  100569:	8d b4 26 00 00 00 00 	lea    0x0(%esi,%eiz,1),%esi

00100570 <hex_dump>:
  100570:	56                   	push   %esi
  100571:	53                   	push   %ebx
  100572:	8b 44 24 0c          	mov    0xc(%esp),%eax
  100576:	85 c0                	test   %eax,%eax
  100578:	0f 84 8a 00 00 00    	je     100608 <hex_dump+0x98>
  10057e:	bb 01 00 00 00       	mov    $0x1,%ebx
  100583:	eb 12                	jmp    100597 <hex_dump+0x27>
  100585:	8d 74 26 00          	lea    0x0(%esi,%eiz,1),%esi
  100589:	8d bc 27 00 00 00 00 	lea    0x0(%edi,%eiz,1),%edi
  100590:	83 fb 63             	cmp    $0x63,%ebx
  100593:	77 23                	ja     1005b8 <hex_dump+0x48>
  100595:	89 d3                	mov    %edx,%ebx
  100597:	89 c1                	mov    %eax,%ecx
  100599:	83 e1 0f             	and    $0xf,%ecx
  10059c:	8d 71 37             	lea    0x37(%ecx),%esi
  10059f:	8d 51 30             	lea    0x30(%ecx),%edx
  1005a2:	83 f9 09             	cmp    $0x9,%ecx
  1005a5:	0f 47 d6             	cmova  %esi,%edx
  1005a8:	c1 e8 04             	shr    $0x4,%eax
  1005ab:	85 c0                	test   %eax,%eax
  1005ad:	88 93 3f 14 10 00    	mov    %dl,0x10143f(%ebx)
  1005b3:	8d 53 01             	lea    0x1(%ebx),%edx
  1005b6:	75 d8                	jne    100590 <hex_dump+0x20>
  1005b8:	83 fb 07             	cmp    $0x7,%ebx
  1005bb:	77 33                	ja     1005f0 <hex_dump+0x80>
  1005bd:	be 08 00 00 00       	mov    $0x8,%esi
  1005c2:	8d b4 26 00 00 00 00 	lea    0x0(%esi,%eiz,1),%esi
  1005c9:	8d bc 27 00 00 00 00 	lea    0x0(%edi,%eiz,1),%edi
  1005d0:	6a 30                	push   $0x30
  1005d2:	83 ee 01             	sub    $0x1,%esi
  1005d5:	e8 b6 fd ff ff       	call   100390 <terminal_putchar>
  1005da:	39 f3                	cmp    %esi,%ebx
  1005dc:	5a                   	pop    %edx
  1005dd:	72 f1                	jb     1005d0 <hex_dump+0x60>
  1005df:	85 db                	test   %ebx,%ebx
  1005e1:	74 22                	je     100605 <hex_dump+0x95>
  1005e3:	8d b6 00 00 00 00    	lea    0x0(%esi),%esi
  1005e9:	8d bc 27 00 00 00 00 	lea    0x0(%edi,%eiz,1),%edi
  1005f0:	83 eb 01             	sub    $0x1,%ebx
  1005f3:	0f be 83 40 14 10 00 	movsbl 0x101440(%ebx),%eax
  1005fa:	50                   	push   %eax
  1005fb:	e8 90 fd ff ff       	call   100390 <terminal_putchar>
  100600:	85 db                	test   %ebx,%ebx
  100602:	58                   	pop    %eax
  100603:	75 eb                	jne    1005f0 <hex_dump+0x80>
  100605:	5b                   	pop    %ebx
  100606:	5e                   	pop    %esi
  100607:	c3                   	ret    
  100608:	31 db                	xor    %ebx,%ebx
  10060a:	eb b1                	jmp    1005bd <hex_dump+0x4d>
  10060c:	8d 74 26 00          	lea    0x0(%esi,%eiz,1),%esi

00100610 <print_num>:
  100610:	6a 0a                	push   $0xa
  100612:	ff 74 24 08          	pushl  0x8(%esp)
  100616:	e8 d5 fe ff ff       	call   1004f0 <print_num_base>
  10061b:	58                   	pop    %eax
  10061c:	5a                   	pop    %edx
  10061d:	c3                   	ret    
  10061e:	66 90                	xchg   %ax,%ax

00100620 <print_num_ln>:
  100620:	6a 0a                	push   $0xa
  100622:	ff 74 24 08          	pushl  0x8(%esp)
  100626:	e8 c5 fe ff ff       	call   1004f0 <print_num_base>
  10062b:	58                   	pop    %eax
  10062c:	5a                   	pop    %edx
  10062d:	c7 44 24 04 0a 00 00 	movl   $0xa,0x4(%esp)
  100634:	00 
  100635:	e9 56 fd ff ff       	jmp    100390 <terminal_putchar>
  10063a:	8d b6 00 00 00 00    	lea    0x0(%esi),%esi

00100640 <print_num_hex>:
  100640:	68 e7 07 10 00       	push   $0x1007e7
  100645:	e8 26 fe ff ff       	call   100470 <print_str>
  10064a:	6a 10                	push   $0x10
  10064c:	ff 74 24 0c          	pushl  0xc(%esp)
  100650:	e8 9b fe ff ff       	call   1004f0 <print_num_base>
  100655:	83 c4 0c             	add    $0xc,%esp
  100658:	c3                   	ret    
  100659:	8d b4 26 00 00 00 00 	lea    0x0(%esi,%eiz,1),%esi

00100660 <print_num_hex_ln>:
  100660:	53                   	push   %ebx
  100661:	8b 5c 24 08          	mov    0x8(%esp),%ebx
  100665:	68 e7 07 10 00       	push   $0x1007e7
  10066a:	e8 01 fe ff ff       	call   100470 <print_str>
  10066f:	6a 10                	push   $0x10
  100671:	53                   	push   %ebx
  100672:	e8 79 fe ff ff       	call   1004f0 <print_num_base>
  100677:	83 c4 0c             	add    $0xc,%esp
  10067a:	c7 44 24 08 0a 00 00 	movl   $0xa,0x8(%esp)
  100681:	00 
  100682:	5b                   	pop    %ebx
  100683:	e9 08 fd ff ff       	jmp    100390 <terminal_putchar>
  100688:	90                   	nop
  100689:	8d b4 26 00 00 00 00 	lea    0x0(%esi,%eiz,1),%esi

00100690 <odio_clear>:
  100690:	53                   	push   %ebx
  100691:	bb d0 07 00 00       	mov    $0x7d0,%ebx
  100696:	8d 76 00             	lea    0x0(%esi),%esi
  100699:	8d bc 27 00 00 00 00 	lea    0x0(%edi,%eiz,1),%edi
  1006a0:	6a 20                	push   $0x20
  1006a2:	e8 e9 fc ff ff       	call   100390 <terminal_putchar>
  1006a7:	83 eb 01             	sub    $0x1,%ebx
  1006aa:	58                   	pop    %eax
  1006ab:	75 f3                	jne    1006a0 <odio_clear+0x10>
  1006ad:	c7 05 24 14 10 00 00 	movl   $0x0,0x101424
  1006b4:	00 00 00 
  1006b7:	c7 05 a8 14 10 00 00 	movl   $0x0,0x1014a8
  1006be:	00 00 00 
  1006c1:	5b                   	pop    %ebx
  1006c2:	c3                   	ret    
